target datalayout = "e-m:e-p270:32:32-p271:32:32-p272:64:64-i64:64-i128:128-f80:128-n8:16:32:64-S128"
target triple = "x86_64-pc-linux-gnu"

%"struct.gmx::EnumerationArray" = type { [4 x i32] }
%"struct.Nbnxm::Grid::Geometry" = type { i8, i32, i32, i32, i32 }
%"class.std::filesystem::__cxx11::path" = type { %"class.std::__cxx11::basic_string", %"struct.std::filesystem::__cxx11::path::_List" }
%"class.std::__cxx11::basic_string" = type { %"struct.std::__cxx11::basic_string<char>::_Alloc_hider", i64, %union.anon }
%"struct.std::__cxx11::basic_string<char>::_Alloc_hider" = type { ptr }
%union.anon = type { i64, [8 x i8] }
%"struct.std::filesystem::__cxx11::path::_List" = type { %"class.std::unique_ptr" }
%"class.std::unique_ptr" = type { %"struct.std::__uniq_ptr_data" }
%"struct.std::__uniq_ptr_data" = type { %"class.std::__uniq_ptr_impl" }
%"class.std::__uniq_ptr_impl" = type { %"class.std::tuple" }
%"class.std::tuple" = type { %"struct.std::_Tuple_impl" }
%"struct.std::_Tuple_impl" = type { %"struct.std::_Head_base.1" }
%"struct.std::_Head_base.1" = type { ptr }

@_ZL23IClusterSizePerListType = internal constant %"struct.gmx::EnumerationArray" { [4 x i32] [i32 4, i32 4, i32 4, i32 8] }, align 4
@_ZL23JClusterSizePerListType = internal constant %"struct.gmx::EnumerationArray" { [4 x i32] [i32 2, i32 4, i32 8, i32 8] }, align 4
@.str = private unnamed_addr constant [128 x i8] c"generated/home/dtcxzyw/WorkSpace/Projects/compilers/llvm-opt-benchmark/bench/gromacs/gromacs/src/gromacs/nbnxm/nbnxm_geometry.h\00", align 1
@.str.1 = private unnamed_addr constant [36 x i8] c"nbnxn na_c (%d) is not a power of 2\00", align 1

; Function Attrs: mustprogress nounwind uwtable
define internal noundef zeroext i1 @_ZN3gmxL12isPowerOfTwoIivEEbT_(i32 noundef %0) #1 {
  %2 = alloca i32, align 4
  store i32 %0, ptr %2, align 4
  %3 = load i32, ptr %2, align 4
  %4 = icmp sgt i32 %3, 0
  br i1 %4, label %5, label %11

5:                                                ; preds = %1
  %6 = load i32, ptr %2, align 4
  %7 = load i32, ptr %2, align 4
  %8 = sub nsw i32 %7, 1
  %9 = and i32 %6, %8
  %10 = icmp eq i32 %9, 0
  br label %11

11:                                               ; preds = %5, %1
  %12 = phi i1 [ false, %1 ], [ %10, %5 ]
  ret i1 %12
}

; Function Attrs: mustprogress uwtable
define internal noundef i32 @_ZL8get_2logi(i32 noundef %0) #0 personality ptr @__gxx_personality_v0 {
  %2 = alloca i32, align 4
  %3 = alloca %"class.std::filesystem::__cxx11::path", align 8
  %4 = alloca ptr, align 8
  %5 = alloca i32, align 4
  store i32 %0, ptr %2, align 4
  %6 = load i32, ptr %2, align 4
  %7 = call noundef zeroext i1 @_ZN3gmxL12isPowerOfTwoIivEEbT_(i32 noundef %6)
  br i1 %7, label %15, label %8

8:                                                ; preds = %1
  call void @_ZNSt10filesystem7__cxx114pathC2IA128_cS1_EERKT_NS1_6formatE(ptr noundef nonnull align 8 dereferenceable(40) %3, ptr noundef nonnull align 1 dereferenceable(128) @.str, i8 noundef zeroext 2)
  %9 = load i32, ptr %2, align 4
  invoke void (i32, ptr, i32, ptr, ...) @_Z9gmx_fataliRKNSt10filesystem7__cxx114pathEiPKcz(i32 noundef 0, ptr noundef nonnull align 8 dereferenceable(40) %3, i32 noundef 62, ptr noundef @.str.1, i32 noundef %9) #20
          to label %10 unwind label %11

10:                                               ; preds = %8
  unreachable

11:                                               ; preds = %8
  %12 = landingpad { ptr, i32 }
          cleanup
  %13 = extractvalue { ptr, i32 } %12, 0
  store ptr %13, ptr %4, align 8
  %14 = extractvalue { ptr, i32 } %12, 1
  store i32 %14, ptr %5, align 4
  call void @_ZNSt10filesystem7__cxx114pathD2Ev(ptr noundef nonnull align 8 dereferenceable(40) %3) #18
  br label %18

15:                                               ; preds = %1
  %16 = load i32, ptr %2, align 4
  %17 = call noundef i32 @_ZN3gmx5log2IEi(i32 noundef %16)
  ret i32 %17

18:                                               ; preds = %11
  %19 = load ptr, ptr %4, align 8
  %20 = load i32, ptr %5, align 4
  %21 = insertvalue { ptr, i32 } poison, ptr %19, 0
  %22 = insertvalue { ptr, i32 } %21, i32 %20, 1
  resume { ptr, i32 } %22
}

; Function Attrs: mustprogress nounwind uwtable
define linkonce_odr noundef nonnull align 4 dereferenceable(4) ptr @_ZNK3gmx16EnumerationArrayI12PairlistTypeiLS1_4EEixES1_(ptr noundef nonnull align 4 dereferenceable(16) %0, i32 noundef %1) #1 comdat align 2 {
  %3 = alloca ptr, align 8
  %4 = alloca i32, align 4
  store ptr %0, ptr %3, align 8
  store i32 %1, ptr %4, align 4
  %5 = load ptr, ptr %3, align 8
  %6 = getelementptr inbounds %"struct.gmx::EnumerationArray", ptr %5, i32 0, i32 0
  %7 = load i32, ptr %4, align 4
  %8 = sext i32 %7 to i64
  %9 = getelementptr inbounds [4 x i32], ptr %6, i64 0, i64 %8
  ret ptr %9
}

; Function Attrs: mustprogress uwtable
define void @_ZN5Nbnxm4Grid8GeometryC2E12PairlistType(ptr noundef nonnull align 4 dereferenceable(20) %0, i32 noundef %1) unnamed_addr #0 align 2 {
  %3 = alloca ptr, align 8
  %4 = alloca i32, align 4
  store ptr %0, ptr %3, align 8
  store i32 %1, ptr %4, align 4
  %5 = load ptr, ptr %3, align 8
  %6 = getelementptr inbounds %"struct.Nbnxm::Grid::Geometry", ptr %5, i32 0, i32 0
  %7 = load i32, ptr %4, align 4
  %8 = icmp ne i32 %7, 3
  %9 = zext i1 %8 to i8
  store i8 %9, ptr %6, align 4
  %10 = getelementptr inbounds %"struct.Nbnxm::Grid::Geometry", ptr %5, i32 0, i32 1
  %11 = load i32, ptr %4, align 4
  %12 = call noundef nonnull align 4 dereferenceable(4) ptr @_ZNK3gmx16EnumerationArrayI12PairlistTypeiLS1_4EEixES1_(ptr noundef nonnull align 4 dereferenceable(16) @_ZL23IClusterSizePerListType, i32 noundef %11)
  %13 = load i32, ptr %12, align 4
  store i32 %13, ptr %10, align 4
  %14 = getelementptr inbounds %"struct.Nbnxm::Grid::Geometry", ptr %5, i32 0, i32 2
  %15 = load i32, ptr %4, align 4
  %16 = call noundef nonnull align 4 dereferenceable(4) ptr @_ZNK3gmx16EnumerationArrayI12PairlistTypeiLS1_4EEixES1_(ptr noundef nonnull align 4 dereferenceable(16) @_ZL23JClusterSizePerListType, i32 noundef %15)
  %17 = load i32, ptr %16, align 4
  store i32 %17, ptr %14, align 4
  %18 = getelementptr inbounds %"struct.Nbnxm::Grid::Geometry", ptr %5, i32 0, i32 3
  %19 = getelementptr inbounds %"struct.Nbnxm::Grid::Geometry", ptr %5, i32 0, i32 0
  %20 = load i8, ptr %19, align 4
  %21 = trunc i8 %20 to i1
  %22 = select i1 %21, i32 1, i32 8
  %23 = getelementptr inbounds %"struct.Nbnxm::Grid::Geometry", ptr %5, i32 0, i32 1
  %24 = load i32, ptr %23, align 4
  %25 = mul nsw i32 %22, %24
  store i32 %25, ptr %18, align 4
  %26 = getelementptr inbounds %"struct.Nbnxm::Grid::Geometry", ptr %5, i32 0, i32 4
  %27 = getelementptr inbounds %"struct.Nbnxm::Grid::Geometry", ptr %5, i32 0, i32 1
  %28 = load i32, ptr %27, align 4
  %29 = call noundef i32 @_ZL8get_2logi(i32 noundef %28)
  store i32 %29, ptr %26, align 4
  ret void
}