; Function Attrs: mustprogress uwtable
define void @_ZN5Nbnxm4Grid8GeometryC2E12PairlistType(ptr nocapture noundef nonnull writeonly align 4 dereferenceable(20) %0, i32 noundef %1) unnamed_addr #0 align 2 personality ptr @__gxx_personality_v0 {
  %3 = alloca %"class.std::filesystem::__cxx11::path", align 8
  %4 = icmp ne i32 %1, 3
  %5 = zext i1 %4 to i8
  store i8 %5, ptr %0, align 4
  %6 = getelementptr inbounds i8, ptr %0, i64 4
  %7 = sext i32 %1 to i64
  %8 = getelementptr inbounds [4 x i32], ptr @_ZL23IClusterSizePerListType, i64 0, i64 %7
  %9 = load i32, ptr %8, align 4
  store i32 %9, ptr %6, align 4
  %10 = getelementptr inbounds i8, ptr %0, i64 8
  %11 = getelementptr inbounds [4 x i32], ptr @_ZL23JClusterSizePerListType, i64 0, i64 %7
  %12 = load i32, ptr %11, align 4
  store i32 %12, ptr %10, align 4
  %13 = getelementptr inbounds i8, ptr %0, i64 12
  %14 = select i1 %4, i32 0, i32 3
  %15 = shl i32 %9, %14
  store i32 %15, ptr %13, align 4
  call void @llvm.lifetime.start.p0(i64 40, ptr nonnull %3)
  %16 = icmp sgt i32 %9, 0
  %17 = add nuw i32 %9, 2147483647
  %18 = and i32 %17, %9
  %19 = icmp eq i32 %18, 0
  %20 = select i1 %16, i1 %19, i1 false
  br i1 %20, label %_ZL8get_2logi.exit, label %21

21:                                               ; preds = %2
  call void @_ZNSt10filesystem7__cxx114pathC2IA128_cS1_EERKT_NS1_6formatE(ptr noundef nonnull align 8 dereferenceable(40) %3, ptr noundef nonnull align 1 dereferenceable(128) @.str, i8 noundef zeroext 2)
  invoke void (i32, ptr, i32, ptr, ...) @_Z9gmx_fataliRKNSt10filesystem7__cxx114pathEiPKcz(i32 noundef 0, ptr noundef nonnull align 8 dereferenceable(40) %3, i32 noundef 62, ptr noundef nonnull @.str.1, i32 noundef %9) #26
          to label %22 unwind label %23

22:                                               ; preds = %21
  unreachable

23:                                               ; preds = %21
  %24 = landingpad { ptr, i32 }
          cleanup
  call void @_ZNSt10filesystem7__cxx114pathD2Ev(ptr noundef nonnull align 8 dereferenceable(40) %3) #19
  resume { ptr, i32 } %24

_ZL8get_2logi.exit:                               ; preds = %2
  %25 = getelementptr inbounds i8, ptr %0, i64 16
  %26 = tail call noundef i32 @_ZN3gmx5log2IEi(i32 noundef %9)
  call void @llvm.lifetime.end.p0(i64 40, ptr nonnull %3)
  store i32 %26, ptr %25, align 4
  ret void
}